target datalayout = "e-m:e-p270:32:32-p271:32:32-p272:64:64-i64:64-i128:128-f80:128-n8:16:32:64-S128"
target triple = "x86_64-pc-linux-gnu"

%struct.SDL_BlitInfo = type { ptr, ptr, i32, i32, i32, i32, ptr, ptr, i32, i32, i32, i32, ptr, ptr, ptr, ptr, ptr, ptr, i32, i32, i8, i8, i8, i8 }
%struct.SDL_PixelFormatDetails = type { i32, i8, i8, [2 x i8], i32, i32, i32, i32, i8, i8, i8, i8, i8, i8, i8, i8 }

; Function Attrs: nounwind uwtable
define internal void @Blit2to2Key(ptr noundef %0) #0 {
  %2 = alloca ptr, align 8
  %3 = alloca i32, align 4
  %4 = alloca i32, align 4
  %5 = alloca ptr, align 8
  %6 = alloca i32, align 4
  %7 = alloca ptr, align 8
  %8 = alloca i32, align 4
  %9 = alloca i32, align 4
  %10 = alloca i32, align 4
  %11 = alloca i32, align 4
  store ptr %0, ptr %2, align 8
  call void @llvm.lifetime.start.p0(i64 4, ptr %3) #3
  %12 = load ptr, ptr %2, align 8
  %13 = getelementptr inbounds nuw %struct.SDL_BlitInfo, ptr %12, i32 0, i32 8
  %14 = load i32, ptr %13, align 8
  store i32 %14, ptr %3, align 4
  call void @llvm.lifetime.start.p0(i64 4, ptr %4) #3
  %15 = load ptr, ptr %2, align 8
  %16 = getelementptr inbounds nuw %struct.SDL_BlitInfo, ptr %15, i32 0, i32 9
  %17 = load i32, ptr %16, align 4
  store i32 %17, ptr %4, align 4
  call void @llvm.lifetime.start.p0(i64 8, ptr %5) #3
  %18 = load ptr, ptr %2, align 8
  %19 = getelementptr inbounds nuw %struct.SDL_BlitInfo, ptr %18, i32 0, i32 1
  %20 = load ptr, ptr %19, align 8
  store ptr %20, ptr %5, align 8
  call void @llvm.lifetime.start.p0(i64 4, ptr %6) #3
  %21 = load ptr, ptr %2, align 8
  %22 = getelementptr inbounds nuw %struct.SDL_BlitInfo, ptr %21, i32 0, i32 5
  %23 = load i32, ptr %22, align 4
  store i32 %23, ptr %6, align 4
  call void @llvm.lifetime.start.p0(i64 8, ptr %7) #3
  %24 = load ptr, ptr %2, align 8
  %25 = getelementptr inbounds nuw %struct.SDL_BlitInfo, ptr %24, i32 0, i32 7
  %26 = load ptr, ptr %25, align 8
  store ptr %26, ptr %7, align 8
  call void @llvm.lifetime.start.p0(i64 4, ptr %8) #3
  %27 = load ptr, ptr %2, align 8
  %28 = getelementptr inbounds nuw %struct.SDL_BlitInfo, ptr %27, i32 0, i32 11
  %29 = load i32, ptr %28, align 4
  store i32 %29, ptr %8, align 4
  call void @llvm.lifetime.start.p0(i64 4, ptr %9) #3
  %30 = load ptr, ptr %2, align 8
  %31 = getelementptr inbounds nuw %struct.SDL_BlitInfo, ptr %30, i32 0, i32 19
  %32 = load i32, ptr %31, align 4
  store i32 %32, ptr %9, align 4
  call void @llvm.lifetime.start.p0(i64 4, ptr %10) #3
  %33 = load ptr, ptr %2, align 8
  %34 = getelementptr inbounds nuw %struct.SDL_BlitInfo, ptr %33, i32 0, i32 12
  %35 = load ptr, ptr %34, align 8
  %36 = getelementptr inbounds nuw %struct.SDL_PixelFormatDetails, ptr %35, i32 0, i32 7
  %37 = load i32, ptr %36, align 4
  %38 = xor i32 %37, -1
  store i32 %38, ptr %10, align 4
  %39 = load i32, ptr %6, align 4
  %40 = sdiv i32 %39, 2
  store i32 %40, ptr %6, align 4
  %41 = load i32, ptr %8, align 4
  %42 = sdiv i32 %41, 2
  store i32 %42, ptr %8, align 4
  %43 = load i32, ptr %10, align 4
  %44 = load i32, ptr %9, align 4
  %45 = and i32 %44, %43
  store i32 %45, ptr %9, align 4
  br label %46

46:                                               ; preds = %198, %1
  %47 = load i32, ptr %4, align 4
  %48 = add nsw i32 %47, -1
  store i32 %48, ptr %4, align 4
  %49 = icmp ne i32 %47, 0
  br i1 %49, label %50, label %207

50:                                               ; preds = %46
  call void @llvm.lifetime.start.p0(i64 4, ptr %11) #3
  %51 = load i32, ptr %3, align 4
  %52 = add nsw i32 %51, 7
  %53 = sdiv i32 %52, 8
  store i32 %53, ptr %11, align 4
  %54 = load i32, ptr %3, align 4
  %55 = and i32 %54, 7
  switch i32 %55, label %198 [
    i32 0, label %56
    i32 7, label %74
    i32 6, label %91
    i32 5, label %108
    i32 4, label %125
    i32 3, label %142
    i32 2, label %159
    i32 1, label %176
  ]

56:                                               ; preds = %50
  br label %57

57:                                               ; preds = %193, %56
  %58 = load ptr, ptr %5, align 8
  %59 = load i16, ptr %58, align 2
  %60 = zext i16 %59 to i32
  %61 = load i32, ptr %10, align 4
  %62 = and i32 %60, %61
  %63 = load i32, ptr %9, align 4
  %64 = icmp ne i32 %62, %63
  br i1 %64, label %65, label %69

65:                                               ; preds = %57
  %66 = load ptr, ptr %5, align 8
  %67 = load i16, ptr %66, align 2
  %68 = load ptr, ptr %7, align 8
  store i16 %67, ptr %68, align 2
  br label %69

69:                                               ; preds = %65, %57
  %70 = load ptr, ptr %7, align 8
  %71 = getelementptr inbounds nuw i16, ptr %70, i32 1
  store ptr %71, ptr %7, align 8
  %72 = load ptr, ptr %5, align 8
  %73 = getelementptr inbounds nuw i16, ptr %72, i32 1
  store ptr %73, ptr %5, align 8
  br label %74

74:                                               ; preds = %50, %69
  %75 = load ptr, ptr %5, align 8
  %76 = load i16, ptr %75, align 2
  %77 = zext i16 %76 to i32
  %78 = load i32, ptr %10, align 4
  %79 = and i32 %77, %78
  %80 = load i32, ptr %9, align 4
  %81 = icmp ne i32 %79, %80
  br i1 %81, label %82, label %86

82:                                               ; preds = %74
  %83 = load ptr, ptr %5, align 8
  %84 = load i16, ptr %83, align 2
  %85 = load ptr, ptr %7, align 8
  store i16 %84, ptr %85, align 2
  br label %86

86:                                               ; preds = %82, %74
  %87 = load ptr, ptr %7, align 8
  %88 = getelementptr inbounds nuw i16, ptr %87, i32 1
  store ptr %88, ptr %7, align 8
  %89 = load ptr, ptr %5, align 8
  %90 = getelementptr inbounds nuw i16, ptr %89, i32 1
  store ptr %90, ptr %5, align 8
  br label %91

91:                                               ; preds = %50, %86
  %92 = load ptr, ptr %5, align 8
  %93 = load i16, ptr %92, align 2
  %94 = zext i16 %93 to i32
  %95 = load i32, ptr %10, align 4
  %96 = and i32 %94, %95
  %97 = load i32, ptr %9, align 4
  %98 = icmp ne i32 %96, %97
  br i1 %98, label %99, label %103

99:                                               ; preds = %91
  %100 = load ptr, ptr %5, align 8
  %101 = load i16, ptr %100, align 2
  %102 = load ptr, ptr %7, align 8
  store i16 %101, ptr %102, align 2
  br label %103

103:                                              ; preds = %99, %91
  %104 = load ptr, ptr %7, align 8
  %105 = getelementptr inbounds nuw i16, ptr %104, i32 1
  store ptr %105, ptr %7, align 8
  %106 = load ptr, ptr %5, align 8
  %107 = getelementptr inbounds nuw i16, ptr %106, i32 1
  store ptr %107, ptr %5, align 8
  br label %108

108:                                              ; preds = %50, %103
  %109 = load ptr, ptr %5, align 8
  %110 = load i16, ptr %109, align 2
  %111 = zext i16 %110 to i32
  %112 = load i32, ptr %10, align 4
  %113 = and i32 %111, %112
  %114 = load i32, ptr %9, align 4
  %115 = icmp ne i32 %113, %114
  br i1 %115, label %116, label %120

116:                                              ; preds = %108
  %117 = load ptr, ptr %5, align 8
  %118 = load i16, ptr %117, align 2
  %119 = load ptr, ptr %7, align 8
  store i16 %118, ptr %119, align 2
  br label %120

120:                                              ; preds = %116, %108
  %121 = load ptr, ptr %7, align 8
  %122 = getelementptr inbounds nuw i16, ptr %121, i32 1
  store ptr %122, ptr %7, align 8
  %123 = load ptr, ptr %5, align 8
  %124 = getelementptr inbounds nuw i16, ptr %123, i32 1
  store ptr %124, ptr %5, align 8
  br label %125

125:                                              ; preds = %50, %120
  %126 = load ptr, ptr %5, align 8
  %127 = load i16, ptr %126, align 2
  %128 = zext i16 %127 to i32
  %129 = load i32, ptr %10, align 4
  %130 = and i32 %128, %129
  %131 = load i32, ptr %9, align 4
  %132 = icmp ne i32 %130, %131
  br i1 %132, label %133, label %137

133:                                              ; preds = %125
  %134 = load ptr, ptr %5, align 8
  %135 = load i16, ptr %134, align 2
  %136 = load ptr, ptr %7, align 8
  store i16 %135, ptr %136, align 2
  br label %137

137:                                              ; preds = %133, %125
  %138 = load ptr, ptr %7, align 8
  %139 = getelementptr inbounds nuw i16, ptr %138, i32 1
  store ptr %139, ptr %7, align 8
  %140 = load ptr, ptr %5, align 8
  %141 = getelementptr inbounds nuw i16, ptr %140, i32 1
  store ptr %141, ptr %5, align 8
  br label %142

142:                                              ; preds = %50, %137
  %143 = load ptr, ptr %5, align 8
  %144 = load i16, ptr %143, align 2
  %145 = zext i16 %144 to i32
  %146 = load i32, ptr %10, align 4
  %147 = and i32 %145, %146
  %148 = load i32, ptr %9, align 4
  %149 = icmp ne i32 %147, %148
  br i1 %149, label %150, label %154

150:                                              ; preds = %142
  %151 = load ptr, ptr %5, align 8
  %152 = load i16, ptr %151, align 2
  %153 = load ptr, ptr %7, align 8
  store i16 %152, ptr %153, align 2
  br label %154

154:                                              ; preds = %150, %142
  %155 = load ptr, ptr %7, align 8
  %156 = getelementptr inbounds nuw i16, ptr %155, i32 1
  store ptr %156, ptr %7, align 8
  %157 = load ptr, ptr %5, align 8
  %158 = getelementptr inbounds nuw i16, ptr %157, i32 1
  store ptr %158, ptr %5, align 8
  br label %159

159:                                              ; preds = %50, %154
  %160 = load ptr, ptr %5, align 8
  %161 = load i16, ptr %160, align 2
  %162 = zext i16 %161 to i32
  %163 = load i32, ptr %10, align 4
  %164 = and i32 %162, %163
  %165 = load i32, ptr %9, align 4
  %166 = icmp ne i32 %164, %165
  br i1 %166, label %167, label %171

167:                                              ; preds = %159
  %168 = load ptr, ptr %5, align 8
  %169 = load i16, ptr %168, align 2
  %170 = load ptr, ptr %7, align 8
  store i16 %169, ptr %170, align 2
  br label %171

171:                                              ; preds = %167, %159
  %172 = load ptr, ptr %7, align 8
  %173 = getelementptr inbounds nuw i16, ptr %172, i32 1
  store ptr %173, ptr %7, align 8
  %174 = load ptr, ptr %5, align 8
  %175 = getelementptr inbounds nuw i16, ptr %174, i32 1
  store ptr %175, ptr %5, align 8
  br label %176

176:                                              ; preds = %50, %171
  %177 = load ptr, ptr %5, align 8
  %178 = load i16, ptr %177, align 2
  %179 = zext i16 %178 to i32
  %180 = load i32, ptr %10, align 4
  %181 = and i32 %179, %180
  %182 = load i32, ptr %9, align 4
  %183 = icmp ne i32 %181, %182
  br i1 %183, label %184, label %188

184:                                              ; preds = %176
  %185 = load ptr, ptr %5, align 8
  %186 = load i16, ptr %185, align 2
  %187 = load ptr, ptr %7, align 8
  store i16 %186, ptr %187, align 2
  br label %188

188:                                              ; preds = %184, %176
  %189 = load ptr, ptr %7, align 8
  %190 = getelementptr inbounds nuw i16, ptr %189, i32 1
  store ptr %190, ptr %7, align 8
  %191 = load ptr, ptr %5, align 8
  %192 = getelementptr inbounds nuw i16, ptr %191, i32 1
  store ptr %192, ptr %5, align 8
  br label %193

193:                                              ; preds = %188
  %194 = load i32, ptr %11, align 4
  %195 = add nsw i32 %194, -1
  store i32 %195, ptr %11, align 4
  %196 = icmp sgt i32 %195, 0
  br i1 %196, label %57, label %197, !llvm.loop !25

197:                                              ; preds = %193
  br label %198

198:                                              ; preds = %197, %50
  call void @llvm.lifetime.end.p0(i64 4, ptr %11) #3
  %199 = load i32, ptr %6, align 4
  %200 = load ptr, ptr %5, align 8
  %201 = sext i32 %199 to i64
  %202 = getelementptr inbounds i16, ptr %200, i64 %201
  store ptr %202, ptr %5, align 8
  %203 = load i32, ptr %8, align 4
  %204 = load ptr, ptr %7, align 8
  %205 = sext i32 %203 to i64
  %206 = getelementptr inbounds i16, ptr %204, i64 %205
  store ptr %206, ptr %7, align 8
  br label %46, !llvm.loop !26

207:                                              ; preds = %46
  call void @llvm.lifetime.end.p0(i64 4, ptr %10) #3
  call void @llvm.lifetime.end.p0(i64 4, ptr %9) #3
  call void @llvm.lifetime.end.p0(i64 4, ptr %8) #3
  call void @llvm.lifetime.end.p0(i64 8, ptr %7) #3
  call void @llvm.lifetime.end.p0(i64 4, ptr %6) #3
  call void @llvm.lifetime.end.p0(i64 8, ptr %5) #3
  call void @llvm.lifetime.end.p0(i64 4, ptr %4) #3
  call void @llvm.lifetime.end.p0(i64 4, ptr %3) #3
  ret void
}