; Function Attrs: nofree norecurse nosync nounwind memory(readwrite, inaccessiblemem: none) uwtable
define internal void @Blit2to2Key(ptr noundef readonly captures(none) %0) #3 {
  %2 = getelementptr inbounds nuw i8, ptr %0, i64 52
  %3 = load i32, ptr %2, align 4
  %4 = getelementptr inbounds nuw i8, ptr %0, i64 116
  %5 = load i32, ptr %4, align 4
  %6 = getelementptr inbounds nuw i8, ptr %0, i64 64
  %7 = load ptr, ptr %6, align 8
  %8 = getelementptr inbounds nuw i8, ptr %7, i64 20
  %9 = load i32, ptr %8, align 4
  %10 = xor i32 %9, -1
  %11 = and i32 %5, %10
  %.not102 = icmp eq i32 %3, 0
  br i1 %.not102, label %._crit_edge, label %.lr.ph

.lr.ph:                                           ; preds = %1
  %12 = getelementptr inbounds nuw i8, ptr %0, i64 60
  %13 = load i32, ptr %12, align 4
  %14 = sdiv i32 %13, 2
  %15 = getelementptr inbounds nuw i8, ptr %0, i64 28
  %16 = load i32, ptr %15, align 4
  %17 = sdiv i32 %16, 2
  %18 = getelementptr inbounds nuw i8, ptr %0, i64 40
  %19 = load ptr, ptr %18, align 8
  %20 = getelementptr inbounds nuw i8, ptr %0, i64 8
  %21 = load ptr, ptr %20, align 8
  %22 = getelementptr inbounds nuw i8, ptr %0, i64 48
  %23 = load i32, ptr %22, align 8
  %24 = add nsw i32 %23, 7
  %25 = sdiv i32 %24, 8
  %26 = and i32 %23, 7
  %27 = sext i32 %17 to i64
  %28 = sext i32 %14 to i64
  br label %29

29:                                               ; preds = %.lr.ph, %97
  %.in = phi i32 [ %3, %.lr.ph ], [ %30, %97 ]
  %.076104 = phi ptr [ %19, %.lr.ph ], [ %99, %97 ]
  %.084103 = phi ptr [ %21, %.lr.ph ], [ %98, %97 ]
  %30 = add nsw i32 %.in, -1
  switch i32 %26, label %default.unreachable105 [
    i32 0, label %31
    i32 7, label %39
    i32 6, label %47
    i32 5, label %55
    i32 4, label %63
    i32 3, label %71
    i32 2, label %79
    i32 1, label %87
  ]

31:                                               ; preds = %29, %92
  %.892 = phi ptr [ %94, %92 ], [ %.084103, %29 ]
  %.8 = phi ptr [ %93, %92 ], [ %.076104, %29 ]
  %.7 = phi i32 [ %95, %92 ], [ %25, %29 ]
  %32 = load i16, ptr %.892, align 2
  %33 = zext i16 %32 to i32
  %34 = and i32 %33, %10
  %.not94 = icmp eq i32 %34, %11
  br i1 %.not94, label %36, label %35

35:                                               ; preds = %31
  store i16 %32, ptr %.8, align 2
  br label %36

36:                                               ; preds = %35, %31
  %37 = getelementptr inbounds nuw i8, ptr %.8, i64 2
  %38 = getelementptr inbounds nuw i8, ptr %.892, i64 2
  br label %39

39:                                               ; preds = %36, %29
  %.185 = phi ptr [ %38, %36 ], [ %.084103, %29 ]
  %.177 = phi ptr [ %37, %36 ], [ %.076104, %29 ]
  %.0 = phi i32 [ %.7, %36 ], [ %25, %29 ]
  %40 = load i16, ptr %.185, align 2
  %41 = zext i16 %40 to i32
  %42 = and i32 %41, %10
  %.not95 = icmp eq i32 %42, %11
  br i1 %.not95, label %44, label %43

43:                                               ; preds = %39
  store i16 %40, ptr %.177, align 2
  br label %44

44:                                               ; preds = %43, %39
  %45 = getelementptr inbounds nuw i8, ptr %.177, i64 2
  %46 = getelementptr inbounds nuw i8, ptr %.185, i64 2
  br label %47

47:                                               ; preds = %44, %29
  %.286 = phi ptr [ %46, %44 ], [ %.084103, %29 ]
  %.278 = phi ptr [ %45, %44 ], [ %.076104, %29 ]
  %.1 = phi i32 [ %.0, %44 ], [ %25, %29 ]
  %48 = load i16, ptr %.286, align 2
  %49 = zext i16 %48 to i32
  %50 = and i32 %49, %10
  %.not96 = icmp eq i32 %50, %11
  br i1 %.not96, label %52, label %51

51:                                               ; preds = %47
  store i16 %48, ptr %.278, align 2
  br label %52

52:                                               ; preds = %51, %47
  %53 = getelementptr inbounds nuw i8, ptr %.278, i64 2
  %54 = getelementptr inbounds nuw i8, ptr %.286, i64 2
  br label %55

55:                                               ; preds = %52, %29
  %.387 = phi ptr [ %54, %52 ], [ %.084103, %29 ]
  %.379 = phi ptr [ %53, %52 ], [ %.076104, %29 ]
  %.2 = phi i32 [ %.1, %52 ], [ %25, %29 ]
  %56 = load i16, ptr %.387, align 2
  %57 = zext i16 %56 to i32
  %58 = and i32 %57, %10
  %.not97 = icmp eq i32 %58, %11
  br i1 %.not97, label %60, label %59

59:                                               ; preds = %55
  store i16 %56, ptr %.379, align 2
  br label %60

60:                                               ; preds = %59, %55
  %61 = getelementptr inbounds nuw i8, ptr %.379, i64 2
  %62 = getelementptr inbounds nuw i8, ptr %.387, i64 2
  br label %63

63:                                               ; preds = %60, %29
  %.488 = phi ptr [ %62, %60 ], [ %.084103, %29 ]
  %.480 = phi ptr [ %61, %60 ], [ %.076104, %29 ]
  %.3 = phi i32 [ %.2, %60 ], [ %25, %29 ]
  %64 = load i16, ptr %.488, align 2
  %65 = zext i16 %64 to i32
  %66 = and i32 %65, %10
  %.not98 = icmp eq i32 %66, %11
  br i1 %.not98, label %68, label %67

67:                                               ; preds = %63
  store i16 %64, ptr %.480, align 2
  br label %68

68:                                               ; preds = %67, %63
  %69 = getelementptr inbounds nuw i8, ptr %.480, i64 2
  %70 = getelementptr inbounds nuw i8, ptr %.488, i64 2
  br label %71

71:                                               ; preds = %68, %29
  %.589 = phi ptr [ %70, %68 ], [ %.084103, %29 ]
  %.581 = phi ptr [ %69, %68 ], [ %.076104, %29 ]
  %.4 = phi i32 [ %.3, %68 ], [ %25, %29 ]
  %72 = load i16, ptr %.589, align 2
  %73 = zext i16 %72 to i32
  %74 = and i32 %73, %10
  %.not99 = icmp eq i32 %74, %11
  br i1 %.not99, label %76, label %75

75:                                               ; preds = %71
  store i16 %72, ptr %.581, align 2
  br label %76

76:                                               ; preds = %75, %71
  %77 = getelementptr inbounds nuw i8, ptr %.581, i64 2
  %78 = getelementptr inbounds nuw i8, ptr %.589, i64 2
  br label %79

79:                                               ; preds = %76, %29
  %.690 = phi ptr [ %78, %76 ], [ %.084103, %29 ]
  %.682 = phi ptr [ %77, %76 ], [ %.076104, %29 ]
  %.5 = phi i32 [ %.4, %76 ], [ %25, %29 ]
  %80 = load i16, ptr %.690, align 2
  %81 = zext i16 %80 to i32
  %82 = and i32 %81, %10
  %.not100 = icmp eq i32 %82, %11
  br i1 %.not100, label %84, label %83

83:                                               ; preds = %79
  store i16 %80, ptr %.682, align 2
  br label %84

84:                                               ; preds = %83, %79
  %85 = getelementptr inbounds nuw i8, ptr %.682, i64 2
  %86 = getelementptr inbounds nuw i8, ptr %.690, i64 2
  br label %87

87:                                               ; preds = %84, %29
  %.791 = phi ptr [ %.084103, %29 ], [ %86, %84 ]
  %.783 = phi ptr [ %.076104, %29 ], [ %85, %84 ]
  %.6 = phi i32 [ %25, %29 ], [ %.5, %84 ]
  %88 = load i16, ptr %.791, align 2
  %89 = zext i16 %88 to i32
  %90 = and i32 %89, %10
  %.not101 = icmp eq i32 %90, %11
  br i1 %.not101, label %92, label %91

91:                                               ; preds = %87
  store i16 %88, ptr %.783, align 2
  br label %92

92:                                               ; preds = %91, %87
  %93 = getelementptr inbounds nuw i8, ptr %.783, i64 2
  %94 = getelementptr inbounds nuw i8, ptr %.791, i64 2
  %95 = add nsw i32 %.6, -1
  %96 = icmp sgt i32 %.6, 1
  br i1 %96, label %31, label %97, !llvm.loop !25

default.unreachable105:                           ; preds = %29
  unreachable

97:                                               ; preds = %92
  %98 = getelementptr inbounds i16, ptr %94, i64 %27
  %99 = getelementptr inbounds i16, ptr %93, i64 %28
  %.not = icmp eq i32 %30, 0
  br i1 %.not, label %._crit_edge, label %29, !llvm.loop !26

._crit_edge:                                      ; preds = %97, %1
  ret void
}